TI ARM Assembler PC v5.2.2 Thu Apr 21 15:17:54 2016

Tools Copyright (c) 1996-2015 Texas Instruments Incorporated
Processor_Initialization_TM4C1294.asm                                PAGE    1

       1                    ;******************************************************************************
       2                    ;* TI ARM C/C++ Codegen                                             PC v5.2.2 *
       3                    ;* Date/Time created: Thu Apr 21 15:17:54 2016                                *
       4                    ;******************************************************************************
       5                            .compiler_opts --abi=eabi --arm_vmrs_si_workaround=off --code_state=16 --diag_wrap=off --disab
       6 00000000                   .thumb
       7                    
       8                    $C$DW$CU        .dwtag  DW_TAG_compile_unit
       9                            .dwattr $C$DW$CU, DW_AT_name("../Drivers/Processor_Initialization_TM4C1294.c")
      10                            .dwattr $C$DW$CU, DW_AT_producer("TI TI ARM C/C++ Codegen PC v5.2.2 Copyright (c) 1996-2015 Te
      11                            .dwattr $C$DW$CU, DW_AT_TI_version(0x01)
      12                            .dwattr $C$DW$CU, DW_AT_comp_dir("H:\EECS_388\TI_CCS_Projects\FreeRTOS823_3_TM4C1294_Base_Test
      13                    
      14                    $C$DW$1 .dwtag  DW_TAG_subprogram, DW_AT_name("GPIOPinConfigure")
      15                            .dwattr $C$DW$1, DW_AT_TI_symbol_name("GPIOPinConfigure")
      16                            .dwattr $C$DW$1, DW_AT_declaration
      17                            .dwattr $C$DW$1, DW_AT_external
      18                            .dwattr $C$DW$1, DW_AT_decl_file("C:/TI_CodeComposer/TivaWare/driverlib/gpio.h")
      19                            .dwattr $C$DW$1, DW_AT_decl_line(0x9f)
      20                            .dwattr $C$DW$1, DW_AT_decl_column(0x0d)
      21                    $C$DW$2 .dwtag  DW_TAG_formal_parameter
      22                            .dwattr $C$DW$2, DW_AT_type(*$C$DW$T$20)
      23                            .dwendtag $C$DW$1
      24                    
      25                    
      26                    $C$DW$3 .dwtag  DW_TAG_subprogram, DW_AT_name("GPIOPinTypeUART")
      27                            .dwattr $C$DW$3, DW_AT_TI_symbol_name("GPIOPinTypeUART")
      28                            .dwattr $C$DW$3, DW_AT_declaration
      29                            .dwattr $C$DW$3, DW_AT_external
      30                            .dwattr $C$DW$3, DW_AT_decl_file("C:/TI_CodeComposer/TivaWare/driverlib/gpio.h")
      31                            .dwattr $C$DW$3, DW_AT_decl_line(0xb0)
      32                            .dwattr $C$DW$3, DW_AT_decl_column(0x0d)
      33                    $C$DW$4 .dwtag  DW_TAG_formal_parameter
      34                            .dwattr $C$DW$4, DW_AT_type(*$C$DW$T$20)
      35                    $C$DW$5 .dwtag  DW_TAG_formal_parameter
      36                            .dwattr $C$DW$5, DW_AT_type(*$C$DW$T$23)
      37                            .dwendtag $C$DW$3
      38                    
      39                    
      40                    $C$DW$6 .dwtag  DW_TAG_subprogram, DW_AT_name("SysCtlPeripheralEnable")
      41                            .dwattr $C$DW$6, DW_AT_TI_symbol_name("SysCtlPeripheralEnable")
      42                            .dwattr $C$DW$6, DW_AT_declaration
      43                            .dwattr $C$DW$6, DW_AT_external
      44                            .dwattr $C$DW$6, DW_AT_decl_file("C:/TI_CodeComposer/TivaWare/driverlib/sysctl.h")
      45                            .dwattr $C$DW$6, DW_AT_decl_line(0x24e)
      46                            .dwattr $C$DW$6, DW_AT_decl_column(0x0d)
      47                    $C$DW$7 .dwtag  DW_TAG_formal_parameter
      48                            .dwattr $C$DW$7, DW_AT_type(*$C$DW$T$20)
      49                            .dwendtag $C$DW$6
      50                    
      51                    
      52                    $C$DW$8 .dwtag  DW_TAG_subprogram, DW_AT_name("SysCtlClockFreqSet")
      53                            .dwattr $C$DW$8, DW_AT_TI_symbol_name("SysCtlClockFreqSet")
      54                            .dwattr $C$DW$8, DW_AT_type(*$C$DW$T$20)
      55                            .dwattr $C$DW$8, DW_AT_declaration
TI ARM Assembler PC v5.2.2 Thu Apr 21 15:17:54 2016

Tools Copyright (c) 1996-2015 Texas Instruments Incorporated
Processor_Initialization_TM4C1294.asm                                PAGE    2

      56                            .dwattr $C$DW$8, DW_AT_external
      57                            .dwattr $C$DW$8, DW_AT_decl_file("C:/TI_CodeComposer/TivaWare/driverlib/sysctl.h")
      58                            .dwattr $C$DW$8, DW_AT_decl_line(0x27a)
      59                            .dwattr $C$DW$8, DW_AT_decl_column(0x11)
      60                    $C$DW$9 .dwtag  DW_TAG_formal_parameter
      61                            .dwattr $C$DW$9, DW_AT_type(*$C$DW$T$20)
      62                    $C$DW$10        .dwtag  DW_TAG_formal_parameter
      63                            .dwattr $C$DW$10, DW_AT_type(*$C$DW$T$20)
      64                            .dwendtag $C$DW$8
      65                    
      66                    
      67                    $C$DW$11        .dwtag  DW_TAG_subprogram, DW_AT_name("UARTConfigSetExpClk")
      68                            .dwattr $C$DW$11, DW_AT_TI_symbol_name("UARTConfigSetExpClk")
      69                            .dwattr $C$DW$11, DW_AT_declaration
      70                            .dwattr $C$DW$11, DW_AT_external
      71                            .dwattr $C$DW$11, DW_AT_decl_file("C:/TI_CodeComposer/TivaWare/driverlib/uart.h")
      72                            .dwattr $C$DW$11, DW_AT_decl_line(0xc8)
      73                            .dwattr $C$DW$11, DW_AT_decl_column(0x0d)
      74                    $C$DW$12        .dwtag  DW_TAG_formal_parameter
      75                            .dwattr $C$DW$12, DW_AT_type(*$C$DW$T$20)
      76                    $C$DW$13        .dwtag  DW_TAG_formal_parameter
      77                            .dwattr $C$DW$13, DW_AT_type(*$C$DW$T$20)
      78                    $C$DW$14        .dwtag  DW_TAG_formal_parameter
      79                            .dwattr $C$DW$14, DW_AT_type(*$C$DW$T$20)
      80                    $C$DW$15        .dwtag  DW_TAG_formal_parameter
      81                            .dwattr $C$DW$15, DW_AT_type(*$C$DW$T$20)
      82                            .dwendtag $C$DW$11
      83                    
      84                    
      85                    $C$DW$16        .dwtag  DW_TAG_subprogram, DW_AT_name("UARTEnable")
      86                            .dwattr $C$DW$16, DW_AT_TI_symbol_name("UARTEnable")
      87                            .dwattr $C$DW$16, DW_AT_declaration
      88                            .dwattr $C$DW$16, DW_AT_external
      89                            .dwattr $C$DW$16, DW_AT_decl_file("C:/TI_CodeComposer/TivaWare/driverlib/uart.h")
      90                            .dwattr $C$DW$16, DW_AT_decl_line(0xcc)
      91                            .dwattr $C$DW$16, DW_AT_decl_column(0x0d)
      92                    $C$DW$17        .dwtag  DW_TAG_formal_parameter
      93                            .dwattr $C$DW$17, DW_AT_type(*$C$DW$T$20)
      94                            .dwendtag $C$DW$16
      95                    
      96                    
      97                    $C$DW$18        .dwtag  DW_TAG_subprogram, DW_AT_name("UARTCharPut")
      98                            .dwattr $C$DW$18, DW_AT_TI_symbol_name("UARTCharPut")
      99                            .dwattr $C$DW$18, DW_AT_declaration
     100                            .dwattr $C$DW$18, DW_AT_external
     101                            .dwattr $C$DW$18, DW_AT_decl_file("C:/TI_CodeComposer/TivaWare/driverlib/uart.h")
     102                            .dwattr $C$DW$18, DW_AT_decl_line(0xd7)
     103                            .dwattr $C$DW$18, DW_AT_decl_column(0x0d)
     104                    $C$DW$19        .dwtag  DW_TAG_formal_parameter
     105                            .dwattr $C$DW$19, DW_AT_type(*$C$DW$T$20)
     106                    $C$DW$20        .dwtag  DW_TAG_formal_parameter
     107                            .dwattr $C$DW$20, DW_AT_type(*$C$DW$T$6)
     108                            .dwendtag $C$DW$18
     109                    
     110                    
TI ARM Assembler PC v5.2.2 Thu Apr 21 15:17:54 2016

Tools Copyright (c) 1996-2015 Texas Instruments Incorporated
Processor_Initialization_TM4C1294.asm                                PAGE    3

     111                    $C$DW$21        .dwtag  DW_TAG_subprogram, DW_AT_name("UARTClockSourceSet")
     112                            .dwattr $C$DW$21, DW_AT_TI_symbol_name("UARTClockSourceSet")
     113                            .dwattr $C$DW$21, DW_AT_declaration
     114                            .dwattr $C$DW$21, DW_AT_external
     115                            .dwattr $C$DW$21, DW_AT_decl_file("C:/TI_CodeComposer/TivaWare/driverlib/uart.h")
     116                            .dwattr $C$DW$21, DW_AT_decl_line(0xee)
     117                            .dwattr $C$DW$21, DW_AT_decl_column(0x0d)
     118                    $C$DW$22        .dwtag  DW_TAG_formal_parameter
     119                            .dwattr $C$DW$22, DW_AT_type(*$C$DW$T$20)
     120                    $C$DW$23        .dwtag  DW_TAG_formal_parameter
     121                            .dwattr $C$DW$23, DW_AT_type(*$C$DW$T$20)
     122                            .dwendtag $C$DW$21
     123                    
     124                    
     125                    $C$DW$24        .dwtag  DW_TAG_subprogram, DW_AT_name("UARTStdioConfig")
     126                            .dwattr $C$DW$24, DW_AT_TI_symbol_name("UARTStdioConfig")
     127                            .dwattr $C$DW$24, DW_AT_type(*$C$DW$T$10)
     128                            .dwattr $C$DW$24, DW_AT_declaration
     129                            .dwattr $C$DW$24, DW_AT_external
     130                            .dwattr $C$DW$24, DW_AT_decl_file("../Drivers/Processor_Initialization_TM4C1294.c")
     131                            .dwattr $C$DW$24, DW_AT_decl_line(0x78)
     132                            .dwattr $C$DW$24, DW_AT_decl_column(0x06)
     133                            .global g_ulSystemClock
     134 00000000                   .data
     135                            .align  4
     136                            .elfsym g_ulSystemClock,SYM_SIZE(4)
     137 00000000           g_ulSystemClock:
     138 00000000 00000000          .bits   0,32                    ; g_ulSystemClock @ 0
     139                    
     140                    $C$DW$25        .dwtag  DW_TAG_variable, DW_AT_name("g_ulSystemClock")
     141                            .dwattr $C$DW$25, DW_AT_TI_symbol_name("g_ulSystemClock")
     142                            .dwattr $C$DW$25, DW_AT_location[DW_OP_addr g_ulSystemClock]
     143                            .dwattr $C$DW$25, DW_AT_type(*$C$DW$T$20)
     144                            .dwattr $C$DW$25, DW_AT_external
     145                            .dwattr $C$DW$25, DW_AT_decl_file("../Drivers/Processor_Initialization_TM4C1294.c")
     146                            .dwattr $C$DW$25, DW_AT_decl_line(0x24)
     147                            .dwattr $C$DW$25, DW_AT_decl_column(0x13)
     148                            .global ProcessorInitFlag
     149 00000004                   .data
     150                            .align  4
     151                            .elfsym ProcessorInitFlag,SYM_SIZE(4)
     152 00000004           ProcessorInitFlag:
     153 00000004 00000000          .bits   0,32                    ; ProcessorInitFlag @ 0
     154                    
     155                    $C$DW$26        .dwtag  DW_TAG_variable, DW_AT_name("ProcessorInitFlag")
     156                            .dwattr $C$DW$26, DW_AT_TI_symbol_name("ProcessorInitFlag")
     157                            .dwattr $C$DW$26, DW_AT_location[DW_OP_addr ProcessorInitFlag]
     158                            .dwattr $C$DW$26, DW_AT_type(*$C$DW$T$20)
     159                            .dwattr $C$DW$26, DW_AT_external
     160                            .dwattr $C$DW$26, DW_AT_decl_file("../Drivers/Processor_Initialization_TM4C1294.c")
     161                            .dwattr $C$DW$26, DW_AT_decl_line(0x26)
     162                            .dwattr $C$DW$26, DW_AT_decl_column(0x0e)
     163                            .global UARTStdioInitFlag
     164 00000008                   .data
     165                            .align  4
TI ARM Assembler PC v5.2.2 Thu Apr 21 15:17:54 2016

Tools Copyright (c) 1996-2015 Texas Instruments Incorporated
Processor_Initialization_TM4C1294.asm                                PAGE    4

     166                            .elfsym UARTStdioInitFlag,SYM_SIZE(4)
     167 00000008           UARTStdioInitFlag:
     168 00000008 00000000          .bits   0,32                    ; UARTStdioInitFlag @ 0
     169                    
     170                    $C$DW$27        .dwtag  DW_TAG_variable, DW_AT_name("UARTStdioInitFlag")
     171                            .dwattr $C$DW$27, DW_AT_TI_symbol_name("UARTStdioInitFlag")
     172                            .dwattr $C$DW$27, DW_AT_location[DW_OP_addr UARTStdioInitFlag]
     173                            .dwattr $C$DW$27, DW_AT_type(*$C$DW$T$20)
     174                            .dwattr $C$DW$27, DW_AT_external
     175                            .dwattr $C$DW$27, DW_AT_decl_file("../Drivers/Processor_Initialization_TM4C1294.c")
     176                            .dwattr $C$DW$27, DW_AT_decl_line(0x27)
     177                            .dwattr $C$DW$27, DW_AT_decl_column(0x0e)
     178                            .global FPUInitFlag
     179 0000000c                   .data
     180                            .align  4
     181                            .elfsym FPUInitFlag,SYM_SIZE(4)
     182 0000000c           FPUInitFlag:
     183 0000000c 00000000          .bits   0,32                    ; FPUInitFlag @ 0
     184                    
     185                    $C$DW$28        .dwtag  DW_TAG_variable, DW_AT_name("FPUInitFlag")
     186                            .dwattr $C$DW$28, DW_AT_TI_symbol_name("FPUInitFlag")
     187                            .dwattr $C$DW$28, DW_AT_location[DW_OP_addr FPUInitFlag]
     188                            .dwattr $C$DW$28, DW_AT_type(*$C$DW$T$20)
     189                            .dwattr $C$DW$28, DW_AT_external
     190                            .dwattr $C$DW$28, DW_AT_decl_file("../Drivers/Processor_Initialization_TM4C1294.c")
     191                            .dwattr $C$DW$28, DW_AT_decl_line(0x28)
     192                            .dwattr $C$DW$28, DW_AT_decl_column(0x0e)
     193                    ;       C:\TI_CodeComposer\ccsv6\tools\compiler\ti-cgt-arm_5.2.2\bin\armacpia.exe -@C:\\Users\\dsolizc
     194 00000000                   .sect   ".text"
     195                            .clink
     196                            .thumbfunc Processor_Initialization
     197 00000000                   .thumb
     198                            .global Processor_Initialization
     199                    
     200                    $C$DW$29        .dwtag  DW_TAG_subprogram, DW_AT_name("Processor_Initialization")
     201                            .dwattr $C$DW$29, DW_AT_low_pc(Processor_Initialization)
     202                            .dwattr $C$DW$29, DW_AT_high_pc(0x00)
     203                            .dwattr $C$DW$29, DW_AT_TI_symbol_name("Processor_Initialization")
     204                            .dwattr $C$DW$29, DW_AT_external
     205                            .dwattr $C$DW$29, DW_AT_type(*$C$DW$T$20)
     206                            .dwattr $C$DW$29, DW_AT_TI_begin_file("../Drivers/Processor_Initialization_TM4C1294.c")
     207                            .dwattr $C$DW$29, DW_AT_TI_begin_line(0x2e)
     208                            .dwattr $C$DW$29, DW_AT_TI_begin_column(0x11)
     209                            .dwattr $C$DW$29, DW_AT_decl_file("../Drivers/Processor_Initialization_TM4C1294.c")
     210                            .dwattr $C$DW$29, DW_AT_decl_line(0x2e)
     211                            .dwattr $C$DW$29, DW_AT_decl_column(0x11)
     212                            .dwattr $C$DW$29, DW_AT_TI_max_frame_size(0x08)
     213                            .dwpsn  file "../Drivers/Processor_Initialization_TM4C1294.c",line 46,column 44,is_stmt,addres
     214                    
     215                            .dwfde $C$DW$CIE, Processor_Initialization
     216                    
     217                    ;*****************************************************************************
     218                    ;* FUNCTION NAME: Processor_Initialization                                   *
     219                    ;*                                                                           *
     220                    ;*   Regs Modified     : A1,A2,A3,A4,V9,SP,LR,SR,D0,D0_hi,D1,D1_hi,D2,D2_hi, *
TI ARM Assembler PC v5.2.2 Thu Apr 21 15:17:54 2016

Tools Copyright (c) 1996-2015 Texas Instruments Incorporated
Processor_Initialization_TM4C1294.asm                                PAGE    5

     221                    ;*                           D3,D3_hi,D4,D4_hi,D5,D5_hi,D6,D6_hi,D7,D7_hi,   *
     222                    ;*                           FPEXC,FPSCR                                     *
     223                    ;*   Regs Used         : A1,A2,A3,A4,V9,SP,LR,SR,D0,D0_hi,D1,D1_hi,D2,D2_hi, *
     224                    ;*                           D3,D3_hi,D4,D4_hi,D5,D5_hi,D6,D6_hi,D7,D7_hi,   *
     225                    ;*                           FPEXC,FPSCR                                     *
     226                    ;*   Local Frame Size  : 0 Args + 0 Auto + 4 Save = 4 byte                   *
     227                    ;*****************************************************************************
     228 00000000           Processor_Initialization:
     229                    ;* --------------------------------------------------------------------------*
     230                            .dwcfi  cfa_offset, 0
     231 00000000 B508              PUSH      {A4, LR}              ; [DPU_3_PIPE]  ; [ORIG 16-BIT INS]
     232                            .dwcfi  cfa_offset, 8
     233                            .dwcfi  save_reg_to_mem, 14, -4
     234                            .dwcfi  save_reg_to_mem, 3, -8
     235                            .dwpsn  file "../Drivers/Processor_Initialization_TM4C1294.c",line 48,column 2,is_stmt,isa 1
     236 00000002 4825              LDR       A1, $C$CON1           ; [DPU_3_PIPE] |48|  ; [ORIG 16-BIT INS]
     237 00000004 6800              LDR       A1, [A1, #0]          ; [DPU_3_PIPE] |48|  ; [ORIG 16-BIT INS]
     238 00000006 B958              CBNZ      A1, ||$C$L1||         ; []  ; [ORIG 16-BIT INS]
     239                            ; BRANCHCC OCCURS {||$C$L1||}    ; [] |48| 
     240                    ;* --------------------------------------------------------------------------*
     241                            .dwpsn  file "../Drivers/Processor_Initialization_TM4C1294.c",line 52,column 3,is_stmt,isa 1
     242 00000008 4825              LDR       A1, $C$CON3           ; [DPU_3_PIPE] |52|  ; [ORIG 16-BIT INS]
     243 0000000a 4926              LDR       A2, $C$CON4           ; [DPU_3_PIPE] |52|  ; [ORIG 16-BIT INS]
     244                    $C$DW$30        .dwtag  DW_TAG_TI_branch
     245                            .dwattr $C$DW$30, DW_AT_low_pc(0x00)
     246                            .dwattr $C$DW$30, DW_AT_name("SysCtlClockFreqSet")
     247                            .dwattr $C$DW$30, DW_AT_TI_call
     248 0000000c FFFEF7FF!         BL        SysCtlClockFreqSet    ; [DPU_3_PIPE] |52|  ; [KEEP 32-BIT INS]
     249                            ; CALL OCCURS {SysCtlClockFreqSet }  ; [] |52| 
     250 00000010 4922              LDR       A2, $C$CON2           ; [DPU_3_PIPE] |52|  ; [ORIG 16-BIT INS]
     251 00000012 6008              STR       A1, [A2, #0]          ; [DPU_3_PIPE] |52|  ; [ORIG 16-BIT INS]
     252                            .dwpsn  file "../Drivers/Processor_Initialization_TM4C1294.c",line 71,column 3,is_stmt,isa 1
     253 00000014 4920              LDR       A2, $C$CON1           ; [DPU_3_PIPE] |71|  ; [ORIG 16-BIT INS]
     254 00000016 2001              MOVS      A1, #1                ; [DPU_3_PIPE] |71|  ; [ORIG 16-BIT INS]
     255 00000018 6008              STR       A1, [A2, #0]          ; [DPU_3_PIPE] |71|  ; [ORIG 16-BIT INS]
     256                            .dwpsn  file "../Drivers/Processor_Initialization_TM4C1294.c",line 72,column 3,is_stmt,isa 1
     257 0000001a 4923              LDR       A2, $C$CON5           ; [DPU_3_PIPE] |72|  ; [ORIG 16-BIT INS]
     258 0000001c 2000              MOVS      A1, #0                ; [DPU_3_PIPE] |72|  ; [ORIG 16-BIT INS]
     259 0000001e 6008              STR       A1, [A2, #0]          ; [DPU_3_PIPE] |72|  ; [ORIG 16-BIT INS]
     260                    ;* --------------------------------------------------------------------------*
     261 00000020           ||$C$L1||:    
     262                            .dwpsn  file "../Drivers/Processor_Initialization_TM4C1294.c",line 75,column 5,is_stmt,isa 1
     263 00000020 2001              MOVS      A1, #1                ; [DPU_3_PIPE] |75|  ; [ORIG 16-BIT INS]
     264                            .dwpsn  file "../Drivers/Processor_Initialization_TM4C1294.c",line 77,column 2,is_stmt,isa 1
     265                    $C$DW$31        .dwtag  DW_TAG_TI_branch
     266                            .dwattr $C$DW$31, DW_AT_low_pc(0x00)
     267                            .dwattr $C$DW$31, DW_AT_TI_return
     268 00000022 BD08              POP       {A4, PC}              ; [DPU_3_PIPE]  ; [ORIG 16-BIT INS]
     269                            .dwcfi  cfa_offset, 0
     270                            ; BRANCH OCCURS                  ; [] 
     271                            .dwattr $C$DW$29, DW_AT_TI_end_file("../Drivers/Processor_Initialization_TM4C1294.c")
     272                            .dwattr $C$DW$29, DW_AT_TI_end_line(0x4d)
     273                            .dwattr $C$DW$29, DW_AT_TI_end_column(0x02)
     274                            .dwendentry
     275                            .dwendtag $C$DW$29
TI ARM Assembler PC v5.2.2 Thu Apr 21 15:17:54 2016

Tools Copyright (c) 1996-2015 Texas Instruments Incorporated
Processor_Initialization_TM4C1294.asm                                PAGE    6

     276                    
     277 00000024                   .sect   ".text"
     278                            .clink
     279                            .thumbfunc UART_Initialization
     280 00000024                   .thumb
     281                            .global UART_Initialization
     282                    
     283                    $C$DW$32        .dwtag  DW_TAG_subprogram, DW_AT_name("UART_Initialization")
     284                            .dwattr $C$DW$32, DW_AT_low_pc(UART_Initialization)
     285                            .dwattr $C$DW$32, DW_AT_high_pc(0x00)
     286                            .dwattr $C$DW$32, DW_AT_TI_symbol_name("UART_Initialization")
     287                            .dwattr $C$DW$32, DW_AT_external
     288                            .dwattr $C$DW$32, DW_AT_type(*$C$DW$T$20)
     289                            .dwattr $C$DW$32, DW_AT_TI_begin_file("../Drivers/Processor_Initialization_TM4C1294.c")
     290                            .dwattr $C$DW$32, DW_AT_TI_begin_line(0x56)
     291                            .dwattr $C$DW$32, DW_AT_TI_begin_column(0x11)
     292                            .dwattr $C$DW$32, DW_AT_decl_file("../Drivers/Processor_Initialization_TM4C1294.c")
     293                            .dwattr $C$DW$32, DW_AT_decl_line(0x56)
     294                            .dwattr $C$DW$32, DW_AT_decl_column(0x11)
     295                            .dwattr $C$DW$32, DW_AT_TI_max_frame_size(0x08)
     296                            .dwpsn  file "../Drivers/Processor_Initialization_TM4C1294.c",line 86,column 39,is_stmt,addres
     297                    
     298                            .dwfde $C$DW$CIE, UART_Initialization
     299                    
     300                    ;*****************************************************************************
     301                    ;* FUNCTION NAME: UART_Initialization                                        *
     302                    ;*                                                                           *
     303                    ;*   Regs Modified     : A1,A2,A3,A4,V9,SP,LR,SR,D0,D0_hi,D1,D1_hi,D2,D2_hi, *
     304                    ;*                           D3,D3_hi,D4,D4_hi,D5,D5_hi,D6,D6_hi,D7,D7_hi,   *
     305                    ;*                           FPEXC,FPSCR                                     *
     306                    ;*   Regs Used         : A1,A2,A3,A4,V9,SP,LR,SR,D0,D0_hi,D1,D1_hi,D2,D2_hi, *
     307                    ;*                           D3,D3_hi,D4,D4_hi,D5,D5_hi,D6,D6_hi,D7,D7_hi,   *
     308                    ;*                           FPEXC,FPSCR                                     *
     309                    ;*   Local Frame Size  : 0 Args + 0 Auto + 4 Save = 4 byte                   *
     310                    ;*****************************************************************************
     311 00000024           UART_Initialization:
     312                    ;* --------------------------------------------------------------------------*
     313                            .dwcfi  cfa_offset, 0
     314 00000024 B508              PUSH      {A4, LR}              ; [DPU_3_PIPE]  ; [ORIG 16-BIT INS]
     315                            .dwcfi  cfa_offset, 8
     316                            .dwcfi  save_reg_to_mem, 14, -4
     317                            .dwcfi  save_reg_to_mem, 3, -8
     318                            .dwpsn  file "../Drivers/Processor_Initialization_TM4C1294.c",line 88,column 2,is_stmt,isa 1
     319 00000026 4821              LDR       A1, $C$CON6           ; [DPU_3_PIPE] |88|  ; [ORIG 16-BIT INS]
     320 00000028 6800              LDR       A1, [A1, #0]          ; [DPU_3_PIPE] |88|  ; [ORIG 16-BIT INS]
     321 0000002a BB90              CBNZ      A1, ||$C$L2||         ; []  ; [ORIG 16-BIT INS]
     322                            ; BRANCHCC OCCURS {||$C$L2||}    ; [] |88| 
     323                    ;* --------------------------------------------------------------------------*
     324                            .dwpsn  file "../Drivers/Processor_Initialization_TM4C1294.c",line 93,column 6,is_stmt,isa 1
     325 0000002c 4820              LDR       A1, $C$CON7           ; [DPU_3_PIPE] |93|  ; [ORIG 16-BIT INS]
     326                    $C$DW$33        .dwtag  DW_TAG_TI_branch
     327                            .dwattr $C$DW$33, DW_AT_low_pc(0x00)
     328                            .dwattr $C$DW$33, DW_AT_name("SysCtlPeripheralEnable")
     329                            .dwattr $C$DW$33, DW_AT_TI_call
     330 0000002e FFFEF7FF!         BL        SysCtlPeripheralEnable ; [DPU_3_PIPE] |93|  ; [KEEP 32-BIT INS]
TI ARM Assembler PC v5.2.2 Thu Apr 21 15:17:54 2016

Tools Copyright (c) 1996-2015 Texas Instruments Incorporated
Processor_Initialization_TM4C1294.asm                                PAGE    7

     331                            ; CALL OCCURS {SysCtlPeripheralEnable }  ; [] |93| 
     332                            .dwpsn  file "../Drivers/Processor_Initialization_TM4C1294.c",line 94,column 6,is_stmt,isa 1
     333 00000032 4820              LDR       A1, $C$CON8           ; [DPU_3_PIPE] |94|  ; [ORIG 16-BIT INS]
     334                    $C$DW$34        .dwtag  DW_TAG_TI_branch
     335                            .dwattr $C$DW$34, DW_AT_low_pc(0x00)
     336                            .dwattr $C$DW$34, DW_AT_name("SysCtlPeripheralEnable")
     337                            .dwattr $C$DW$34, DW_AT_TI_call
     338 00000034 FFFEF7FF!         BL        SysCtlPeripheralEnable ; [DPU_3_PIPE] |94|  ; [KEEP 32-BIT INS]
     339                            ; CALL OCCURS {SysCtlPeripheralEnable }  ; [] |94| 
     340                            .dwpsn  file "../Drivers/Processor_Initialization_TM4C1294.c",line 96,column 6,is_stmt,isa 1
     341 00000038 2001              MOVS      A1, #1                ; [DPU_3_PIPE] |96|  ; [ORIG 16-BIT INS]
     342                    $C$DW$35        .dwtag  DW_TAG_TI_branch
     343                            .dwattr $C$DW$35, DW_AT_low_pc(0x00)
     344                            .dwattr $C$DW$35, DW_AT_name("GPIOPinConfigure")
     345                            .dwattr $C$DW$35, DW_AT_TI_call
     346 0000003a FFFEF7FF!         BL        GPIOPinConfigure      ; [DPU_3_PIPE] |96|  ; [KEEP 32-BIT INS]
     347                            ; CALL OCCURS {GPIOPinConfigure }  ; [] |96| 
     348                            .dwpsn  file "../Drivers/Processor_Initialization_TM4C1294.c",line 97,column 6,is_stmt,isa 1
     349 0000003e 4001F240          MOV       A1, #1025             ; [DPU_3_PIPE] |97|  ; [KEEP 32-BIT INS]
     350                    $C$DW$36        .dwtag  DW_TAG_TI_branch
     351                            .dwattr $C$DW$36, DW_AT_low_pc(0x00)
     352                            .dwattr $C$DW$36, DW_AT_name("GPIOPinConfigure")
     353                            .dwattr $C$DW$36, DW_AT_TI_call
     354 00000042 FFFEF7FF!         BL        GPIOPinConfigure      ; [DPU_3_PIPE] |97|  ; [KEEP 32-BIT INS]
     355                            ; CALL OCCURS {GPIOPinConfigure }  ; [] |97| 
     356                            .dwpsn  file "../Drivers/Processor_Initialization_TM4C1294.c",line 98,column 6,is_stmt,isa 1
     357 00000046 2040F04F          MOV       A1, #1073758208       ; [DPU_3_PIPE] |98|  ; [KEEP 32-BIT INS]
     358 0000004a 2103              MOVS      A2, #3                ; [DPU_3_PIPE] |98|  ; [ORIG 16-BIT INS]
     359                    $C$DW$37        .dwtag  DW_TAG_TI_branch
     360                            .dwattr $C$DW$37, DW_AT_low_pc(0x00)
     361                            .dwattr $C$DW$37, DW_AT_name("GPIOPinTypeUART")
     362                            .dwattr $C$DW$37, DW_AT_TI_call
     363 0000004c FFFEF7FF!         BL        GPIOPinTypeUART       ; [DPU_3_PIPE] |98|  ; [KEEP 32-BIT INS]
     364                            ; CALL OCCURS {GPIOPinTypeUART }  ; [] |98| 
     365                            .dwpsn  file "../Drivers/Processor_Initialization_TM4C1294.c",line 103,column 6,is_stmt,isa 1
     366 00000050 4819              LDR       A1, $C$CON9           ; [DPU_3_PIPE] |103|  ; [ORIG 16-BIT INS]
     367 00000052 2100              MOVS      A2, #0                ; [DPU_3_PIPE] |103|  ; [ORIG 16-BIT INS]
     368                    $C$DW$38        .dwtag  DW_TAG_TI_branch
     369                            .dwattr $C$DW$38, DW_AT_low_pc(0x00)
     370                            .dwattr $C$DW$38, DW_AT_name("UARTClockSourceSet")
     371                            .dwattr $C$DW$38, DW_AT_TI_call
     372 00000054 FFFEF7FF!         BL        UARTClockSourceSet    ; [DPU_3_PIPE] |103|  ; [KEEP 32-BIT INS]
     373                            ; CALL OCCURS {UARTClockSourceSet }  ; [] |103| 
     374                            .dwpsn  file "../Drivers/Processor_Initialization_TM4C1294.c",line 104,column 6,is_stmt,isa 1
     375 00000058 4910              LDR       A2, $C$CON2           ; [DPU_3_PIPE] |104|  ; [ORIG 16-BIT INS]
     376 0000005a 4817              LDR       A1, $C$CON9           ; [DPU_3_PIPE] |104|  ; [ORIG 16-BIT INS]
     377 0000005c 6809              LDR       A2, [A2, #0]          ; [DPU_3_PIPE] |104|  ; [ORIG 16-BIT INS]
     378 0000005e 32E1F44F          MOV       A3, #115200           ; [DPU_3_PIPE] |104|  ; [KEEP 32-BIT INS]
     379 00000062 2360              MOVS      A4, #96               ; [DPU_3_PIPE] |104|  ; [ORIG 16-BIT INS]
     380                    $C$DW$39        .dwtag  DW_TAG_TI_branch
     381                            .dwattr $C$DW$39, DW_AT_low_pc(0x00)
     382                            .dwattr $C$DW$39, DW_AT_name("UARTConfigSetExpClk")
     383                            .dwattr $C$DW$39, DW_AT_TI_call
     384 00000064 FFFEF7FF!         BL        UARTConfigSetExpClk   ; [DPU_3_PIPE] |104|  ; [KEEP 32-BIT INS]
     385                            ; CALL OCCURS {UARTConfigSetExpClk }  ; [] |104| 
TI ARM Assembler PC v5.2.2 Thu Apr 21 15:17:54 2016

Tools Copyright (c) 1996-2015 Texas Instruments Incorporated
Processor_Initialization_TM4C1294.asm                                PAGE    8

     386                            .dwpsn  file "../Drivers/Processor_Initialization_TM4C1294.c",line 112,column 6,is_stmt,isa 1
     387 00000068 4813              LDR       A1, $C$CON9           ; [DPU_3_PIPE] |112|  ; [ORIG 16-BIT INS]
     388                    $C$DW$40        .dwtag  DW_TAG_TI_branch
     389                            .dwattr $C$DW$40, DW_AT_low_pc(0x00)
     390                            .dwattr $C$DW$40, DW_AT_name("UARTEnable")
     391                            .dwattr $C$DW$40, DW_AT_TI_call
     392 0000006a FFFEF7FF!         BL        UARTEnable            ; [DPU_3_PIPE] |112|  ; [KEEP 32-BIT INS]
     393                            ; CALL OCCURS {UARTEnable }      ; [] |112| 
     394                            .dwpsn  file "../Drivers/Processor_Initialization_TM4C1294.c",line 114,column 6,is_stmt,isa 1
     395 0000006e 4812              LDR       A1, $C$CON9           ; [DPU_3_PIPE] |114|  ; [ORIG 16-BIT INS]
     396 00000070 213E              MOVS      A2, #62               ; [DPU_3_PIPE] |114|  ; [ORIG 16-BIT INS]
     397                    $C$DW$41        .dwtag  DW_TAG_TI_branch
     398                            .dwattr $C$DW$41, DW_AT_low_pc(0x00)
     399                            .dwattr $C$DW$41, DW_AT_name("UARTCharPut")
     400                            .dwattr $C$DW$41, DW_AT_TI_call
     401 00000072 FFFEF7FF!         BL        UARTCharPut           ; [DPU_3_PIPE] |114|  ; [KEEP 32-BIT INS]
     402                            ; CALL OCCURS {UARTCharPut }     ; [] |114| 
     403                            .dwpsn  file "../Drivers/Processor_Initialization_TM4C1294.c",line 115,column 6,is_stmt,isa 1
     404 00000076 4810              LDR       A1, $C$CON9           ; [DPU_3_PIPE] |115|  ; [ORIG 16-BIT INS]
     405 00000078 213E              MOVS      A2, #62               ; [DPU_3_PIPE] |115|  ; [ORIG 16-BIT INS]
     406                    $C$DW$42        .dwtag  DW_TAG_TI_branch
     407                            .dwattr $C$DW$42, DW_AT_low_pc(0x00)
     408                            .dwattr $C$DW$42, DW_AT_name("UARTCharPut")
     409                            .dwattr $C$DW$42, DW_AT_TI_call
     410 0000007a FFFEF7FF!         BL        UARTCharPut           ; [DPU_3_PIPE] |115|  ; [KEEP 32-BIT INS]
     411                            ; CALL OCCURS {UARTCharPut }     ; [] |115| 
     412                            .dwpsn  file "../Drivers/Processor_Initialization_TM4C1294.c",line 120,column 6,is_stmt,isa 1
     413 0000007e 4807              LDR       A1, $C$CON2           ; [DPU_3_PIPE] |120|  ; [ORIG 16-BIT INS]
     414 00000080 6802              LDR       A3, [A1, #0]          ; [DPU_3_PIPE] |120|  ; [ORIG 16-BIT INS]
     415 00000082 31E1F44F          MOV       A2, #115200           ; [DPU_3_PIPE] |120|  ; [KEEP 32-BIT INS]
     416 00000086 2000              MOVS      A1, #0                ; [DPU_3_PIPE] |120|  ; [ORIG 16-BIT INS]
     417                    $C$DW$43        .dwtag  DW_TAG_TI_branch
     418                            .dwattr $C$DW$43, DW_AT_low_pc(0x00)
     419                            .dwattr $C$DW$43, DW_AT_name("UARTStdioConfig")
     420                            .dwattr $C$DW$43, DW_AT_TI_call
     421 00000088 FFFEF7FF!         BL        UARTStdioConfig       ; [DPU_3_PIPE] |120|  ; [KEEP 32-BIT INS]
     422                            ; CALL OCCURS {UARTStdioConfig }  ; [] |120| 
     423                    ;* --------------------------------------------------------------------------*
     424                            .dwpsn  file "../Drivers/Processor_Initialization_TM4C1294.c",line 122,column 3,is_stmt,isa 1
     425 0000008c 4907              LDR       A2, $C$CON6           ; [DPU_3_PIPE] |122|  ; [ORIG 16-BIT INS]
     426 0000008e 2001              MOVS      A1, #1                ; [DPU_3_PIPE] |122|  ; [ORIG 16-BIT INS]
     427 00000090 6008              STR       A1, [A2, #0]          ; [DPU_3_PIPE] |122|  ; [ORIG 16-BIT INS]
     428                    ;* --------------------------------------------------------------------------*
     429 00000092           ||$C$L2||:    
     430                            .dwpsn  file "../Drivers/Processor_Initialization_TM4C1294.c",line 125,column 5,is_stmt,isa 1
     431 00000092 2001              MOVS      A1, #1                ; [DPU_3_PIPE] |125|  ; [ORIG 16-BIT INS]
     432                            .dwpsn  file "../Drivers/Processor_Initialization_TM4C1294.c",line 127,column 2,is_stmt,isa 1
     433                    $C$DW$44        .dwtag  DW_TAG_TI_branch
     434                            .dwattr $C$DW$44, DW_AT_low_pc(0x00)
     435                            .dwattr $C$DW$44, DW_AT_TI_return
     436 00000094 BD08              POP       {A4, PC}              ; [DPU_3_PIPE]  ; [ORIG 16-BIT INS]
     437                            .dwcfi  cfa_offset, 0
     438                            ; BRANCH OCCURS                  ; [] 
     439                            .dwattr $C$DW$32, DW_AT_TI_end_file("../Drivers/Processor_Initialization_TM4C1294.c")
     440                            .dwattr $C$DW$32, DW_AT_TI_end_line(0x7f)
TI ARM Assembler PC v5.2.2 Thu Apr 21 15:17:54 2016

Tools Copyright (c) 1996-2015 Texas Instruments Incorporated
Processor_Initialization_TM4C1294.asm                                PAGE    9

     441                            .dwattr $C$DW$32, DW_AT_TI_end_column(0x02)
     442                            .dwendentry
     443                            .dwendtag $C$DW$32
     444                    
     445                    ;******************************************************************************
     446                    ;* CONSTANT TABLE                                                             *
     447                    ;******************************************************************************
     448 00000096                   .sect   ".text"
     449                            .align  4
     450 00000096 000046C0! ||$C$CON1||:    .bits   ProcessorInitFlag,32
         0000009a 00000000 
     451                            .align  4
     452 0000009a 00000000! ||$C$CON2||:    .bits   g_ulSystemClock,32
         0000009e 00000000 
     453                            .align  4
     454 0000009e 06800000  ||$C$CON3||:    .bits   -251656576,32
         000000a2 0000F100 
     455                            .align  4
     456 000000a2 0E00F100  ||$C$CON4||:    .bits   120000000,32
         000000a6 00000727 
     457                            .align  4
     458 000000a6 00000727! ||$C$CON5||:    .bits   FPUInitFlag,32
         000000aa 00000000 
     459                            .align  4
     460 000000aa 00000000! ||$C$CON6||:    .bits   UARTStdioInitFlag,32
         000000ae 00000000 
     461                            .align  4
     462 000000ae 18000000  ||$C$CON7||:    .bits   -268429312,32
         000000b2 0000F000 
     463                            .align  4
     464 000000b2 0800F000  ||$C$CON8||:    .bits   -268433408,32
         000000b6 0000F000 
     465                            .align  4
     466 000000b6 C000F000  ||$C$CON9||:    .bits   1073790976,32
         000000ba 00004000 
     467                    ;*****************************************************************************
     468                    ;* UNDEFINED EXTERNAL REFERENCES                                             *
     469                    ;*****************************************************************************
     470                            .global GPIOPinConfigure
     471                            .global GPIOPinTypeUART
     472                            .global SysCtlPeripheralEnable
     473                            .global SysCtlClockFreqSet
     474                            .global UARTConfigSetExpClk
     475                            .global UARTEnable
     476                            .global UARTCharPut
     477                            .global UARTClockSourceSet
     478                            .global UARTStdioConfig
     479                    
     480                    ;******************************************************************************
     481                    ;* BUILD ATTRIBUTES                                                           *
     482                    ;******************************************************************************
     483                            .battr "aeabi", Tag_File, 1, Tag_ABI_PCS_wchar_t(2)
     484                            .battr "aeabi", Tag_File, 1, Tag_ABI_FP_rounding(0)
     485                            .battr "aeabi", Tag_File, 1, Tag_ABI_FP_denormal(0)
     486                            .battr "aeabi", Tag_File, 1, Tag_ABI_FP_exceptions(0)
TI ARM Assembler PC v5.2.2 Thu Apr 21 15:17:54 2016

Tools Copyright (c) 1996-2015 Texas Instruments Incorporated
Processor_Initialization_TM4C1294.asm                                PAGE   10

     487                            .battr "aeabi", Tag_File, 1, Tag_ABI_FP_number_model(1)
     488                            .battr "aeabi", Tag_File, 1, Tag_ABI_enum_size(0)
     489                            .battr "aeabi", Tag_File, 1, Tag_ABI_optimization_goals(5)
     490                            .battr "aeabi", Tag_File, 1, Tag_ABI_FP_optimization_goals(0)
     491                            .battr "TI", Tag_File, 1, Tag_Bitfield_layout(2)
     492                            .battr "TI", Tag_File, 1, Tag_FP_interface(1)
     493                    
     494                    ;******************************************************************************
     495                    ;* TYPE INFORMATION                                                           *
     496                    ;******************************************************************************
     497                    $C$DW$T$2       .dwtag  DW_TAG_unspecified_type
     498                            .dwattr $C$DW$T$2, DW_AT_name("void")
     499                    $C$DW$T$3       .dwtag  DW_TAG_pointer_type
     500                            .dwattr $C$DW$T$3, DW_AT_type(*$C$DW$T$2)
     501                            .dwattr $C$DW$T$3, DW_AT_address_class(0x20)
     502                    $C$DW$T$4       .dwtag  DW_TAG_base_type
     503                            .dwattr $C$DW$T$4, DW_AT_encoding(DW_ATE_boolean)
     504                            .dwattr $C$DW$T$4, DW_AT_name("bool")
     505                            .dwattr $C$DW$T$4, DW_AT_byte_size(0x01)
     506                    $C$DW$T$5       .dwtag  DW_TAG_base_type
     507                            .dwattr $C$DW$T$5, DW_AT_encoding(DW_ATE_signed_char)
     508                            .dwattr $C$DW$T$5, DW_AT_name("signed char")
     509                            .dwattr $C$DW$T$5, DW_AT_byte_size(0x01)
     510                    $C$DW$T$32      .dwtag  DW_TAG_typedef, DW_AT_name("int8_t")
     511                            .dwattr $C$DW$T$32, DW_AT_type(*$C$DW$T$5)
     512                            .dwattr $C$DW$T$32, DW_AT_language(DW_LANG_C)
     513                            .dwattr $C$DW$T$32, DW_AT_decl_file("C:/TI_CodeComposer/ccsv6/tools/compiler/ti-cgt-arm_5.2.2/
     514                            .dwattr $C$DW$T$32, DW_AT_decl_line(0x2a)
     515                            .dwattr $C$DW$T$32, DW_AT_decl_column(0x1d)
     516                    $C$DW$T$33      .dwtag  DW_TAG_typedef, DW_AT_name("int_least8_t")
     517                            .dwattr $C$DW$T$33, DW_AT_type(*$C$DW$T$32)
     518                            .dwattr $C$DW$T$33, DW_AT_language(DW_LANG_C)
     519                            .dwattr $C$DW$T$33, DW_AT_decl_file("C:/TI_CodeComposer/ccsv6/tools/compiler/ti-cgt-arm_5.2.2/
     520                            .dwattr $C$DW$T$33, DW_AT_decl_line(0x37)
     521                            .dwattr $C$DW$T$33, DW_AT_decl_column(0x17)
     522                    $C$DW$T$6       .dwtag  DW_TAG_base_type
     523                            .dwattr $C$DW$T$6, DW_AT_encoding(DW_ATE_unsigned_char)
     524                            .dwattr $C$DW$T$6, DW_AT_name("unsigned char")
     525                            .dwattr $C$DW$T$6, DW_AT_byte_size(0x01)
     526                    $C$DW$T$23      .dwtag  DW_TAG_typedef, DW_AT_name("uint8_t")
     527                            .dwattr $C$DW$T$23, DW_AT_type(*$C$DW$T$6)
     528                            .dwattr $C$DW$T$23, DW_AT_language(DW_LANG_C)
     529                            .dwattr $C$DW$T$23, DW_AT_decl_file("C:/TI_CodeComposer/ccsv6/tools/compiler/ti-cgt-arm_5.2.2/
     530                            .dwattr $C$DW$T$23, DW_AT_decl_line(0x2b)
     531                            .dwattr $C$DW$T$23, DW_AT_decl_column(0x1c)
     532                    $C$DW$T$34      .dwtag  DW_TAG_typedef, DW_AT_name("uint_least8_t")
     533                            .dwattr $C$DW$T$34, DW_AT_type(*$C$DW$T$23)
     534                            .dwattr $C$DW$T$34, DW_AT_language(DW_LANG_C)
     535                            .dwattr $C$DW$T$34, DW_AT_decl_file("C:/TI_CodeComposer/ccsv6/tools/compiler/ti-cgt-arm_5.2.2/
     536                            .dwattr $C$DW$T$34, DW_AT_decl_line(0x38)
     537                            .dwattr $C$DW$T$34, DW_AT_decl_column(0x16)
     538                    $C$DW$T$7       .dwtag  DW_TAG_base_type
     539                            .dwattr $C$DW$T$7, DW_AT_encoding(DW_ATE_signed_char)
     540                            .dwattr $C$DW$T$7, DW_AT_name("wchar_t")
     541                            .dwattr $C$DW$T$7, DW_AT_byte_size(0x02)
TI ARM Assembler PC v5.2.2 Thu Apr 21 15:17:54 2016

Tools Copyright (c) 1996-2015 Texas Instruments Incorporated
Processor_Initialization_TM4C1294.asm                                PAGE   11

     542                    $C$DW$T$8       .dwtag  DW_TAG_base_type
     543                            .dwattr $C$DW$T$8, DW_AT_encoding(DW_ATE_signed)
     544                            .dwattr $C$DW$T$8, DW_AT_name("short")
     545                            .dwattr $C$DW$T$8, DW_AT_byte_size(0x02)
     546                    $C$DW$T$35      .dwtag  DW_TAG_typedef, DW_AT_name("int16_t")
     547                            .dwattr $C$DW$T$35, DW_AT_type(*$C$DW$T$8)
     548                            .dwattr $C$DW$T$35, DW_AT_language(DW_LANG_C)
     549                            .dwattr $C$DW$T$35, DW_AT_decl_file("C:/TI_CodeComposer/ccsv6/tools/compiler/ti-cgt-arm_5.2.2/
     550                            .dwattr $C$DW$T$35, DW_AT_decl_line(0x2c)
     551                            .dwattr $C$DW$T$35, DW_AT_decl_column(0x1d)
     552                    $C$DW$T$36      .dwtag  DW_TAG_typedef, DW_AT_name("int_least16_t")
     553                            .dwattr $C$DW$T$36, DW_AT_type(*$C$DW$T$35)
     554                            .dwattr $C$DW$T$36, DW_AT_language(DW_LANG_C)
     555                            .dwattr $C$DW$T$36, DW_AT_decl_file("C:/TI_CodeComposer/ccsv6/tools/compiler/ti-cgt-arm_5.2.2/
     556                            .dwattr $C$DW$T$36, DW_AT_decl_line(0x3a)
     557                            .dwattr $C$DW$T$36, DW_AT_decl_column(0x17)
     558                    $C$DW$T$9       .dwtag  DW_TAG_base_type
     559                            .dwattr $C$DW$T$9, DW_AT_encoding(DW_ATE_unsigned)
     560                            .dwattr $C$DW$T$9, DW_AT_name("unsigned short")
     561                            .dwattr $C$DW$T$9, DW_AT_byte_size(0x02)
     562                    $C$DW$T$37      .dwtag  DW_TAG_typedef, DW_AT_name("_Wchart")
     563                            .dwattr $C$DW$T$37, DW_AT_type(*$C$DW$T$9)
     564                            .dwattr $C$DW$T$37, DW_AT_language(DW_LANG_C)
     565                            .dwattr $C$DW$T$37, DW_AT_decl_file("C:/TI_CodeComposer/ccsv6/tools/compiler/ti-cgt-arm_5.2.2/
     566                            .dwattr $C$DW$T$37, DW_AT_decl_line(0x1e5)
     567                            .dwattr $C$DW$T$37, DW_AT_decl_column(0x21)
     568                    $C$DW$T$38      .dwtag  DW_TAG_typedef, DW_AT_name("_Wintt")
     569                            .dwattr $C$DW$T$38, DW_AT_type(*$C$DW$T$9)
     570                            .dwattr $C$DW$T$38, DW_AT_language(DW_LANG_C)
     571                            .dwattr $C$DW$T$38, DW_AT_decl_file("C:/TI_CodeComposer/ccsv6/tools/compiler/ti-cgt-arm_5.2.2/
     572                            .dwattr $C$DW$T$38, DW_AT_decl_line(0x1e6)
     573                            .dwattr $C$DW$T$38, DW_AT_decl_column(0x21)
     574                    $C$DW$T$39      .dwtag  DW_TAG_typedef, DW_AT_name("uint16_t")
     575                            .dwattr $C$DW$T$39, DW_AT_type(*$C$DW$T$9)
     576                            .dwattr $C$DW$T$39, DW_AT_language(DW_LANG_C)
     577                            .dwattr $C$DW$T$39, DW_AT_decl_file("C:/TI_CodeComposer/ccsv6/tools/compiler/ti-cgt-arm_5.2.2/
     578                            .dwattr $C$DW$T$39, DW_AT_decl_line(0x2d)
     579                            .dwattr $C$DW$T$39, DW_AT_decl_column(0x1c)
     580                    $C$DW$T$40      .dwtag  DW_TAG_typedef, DW_AT_name("uint_least16_t")
     581                            .dwattr $C$DW$T$40, DW_AT_type(*$C$DW$T$39)
     582                            .dwattr $C$DW$T$40, DW_AT_language(DW_LANG_C)
     583                            .dwattr $C$DW$T$40, DW_AT_decl_file("C:/TI_CodeComposer/ccsv6/tools/compiler/ti-cgt-arm_5.2.2/
     584                            .dwattr $C$DW$T$40, DW_AT_decl_line(0x3b)
     585                            .dwattr $C$DW$T$40, DW_AT_decl_column(0x16)
     586                    $C$DW$T$41      .dwtag  DW_TAG_typedef, DW_AT_name("wchar_t")
     587                            .dwattr $C$DW$T$41, DW_AT_type(*$C$DW$T$9)
     588                            .dwattr $C$DW$T$41, DW_AT_language(DW_LANG_C)
     589                            .dwattr $C$DW$T$41, DW_AT_decl_file("C:/TI_CodeComposer/ccsv6/tools/compiler/ti-cgt-arm_5.2.2/
     590                            .dwattr $C$DW$T$41, DW_AT_decl_line(0x41)
     591                            .dwattr $C$DW$T$41, DW_AT_decl_column(0x1a)
     592                    $C$DW$T$10      .dwtag  DW_TAG_base_type
     593                            .dwattr $C$DW$T$10, DW_AT_encoding(DW_ATE_signed)
     594                            .dwattr $C$DW$T$10, DW_AT_name("int")
     595                            .dwattr $C$DW$T$10, DW_AT_byte_size(0x04)
     596                    $C$DW$T$42      .dwtag  DW_TAG_typedef, DW_AT_name("_Ptrdifft")
TI ARM Assembler PC v5.2.2 Thu Apr 21 15:17:54 2016

Tools Copyright (c) 1996-2015 Texas Instruments Incorporated
Processor_Initialization_TM4C1294.asm                                PAGE   12

     597                            .dwattr $C$DW$T$42, DW_AT_type(*$C$DW$T$10)
     598                            .dwattr $C$DW$T$42, DW_AT_language(DW_LANG_C)
     599                            .dwattr $C$DW$T$42, DW_AT_decl_file("C:/TI_CodeComposer/ccsv6/tools/compiler/ti-cgt-arm_5.2.2/
     600                            .dwattr $C$DW$T$42, DW_AT_decl_line(0xa9)
     601                            .dwattr $C$DW$T$42, DW_AT_decl_column(0x1e)
     602                    $C$DW$T$45      .dwtag  DW_TAG_typedef, DW_AT_name("int32_t")
     603                            .dwattr $C$DW$T$45, DW_AT_type(*$C$DW$T$10)
     604                            .dwattr $C$DW$T$45, DW_AT_language(DW_LANG_C)
     605                            .dwattr $C$DW$T$45, DW_AT_decl_file("C:/TI_CodeComposer/ccsv6/tools/compiler/ti-cgt-arm_5.2.2/
     606                            .dwattr $C$DW$T$45, DW_AT_decl_line(0x2e)
     607                            .dwattr $C$DW$T$45, DW_AT_decl_column(0x1d)
     608                    $C$DW$T$46      .dwtag  DW_TAG_typedef, DW_AT_name("int_fast16_t")
     609                            .dwattr $C$DW$T$46, DW_AT_type(*$C$DW$T$45)
     610                            .dwattr $C$DW$T$46, DW_AT_language(DW_LANG_C)
     611                            .dwattr $C$DW$T$46, DW_AT_decl_file("C:/TI_CodeComposer/ccsv6/tools/compiler/ti-cgt-arm_5.2.2/
     612                            .dwattr $C$DW$T$46, DW_AT_decl_line(0x47)
     613                            .dwattr $C$DW$T$46, DW_AT_decl_column(0x17)
     614                    $C$DW$T$47      .dwtag  DW_TAG_typedef, DW_AT_name("int_fast32_t")
     615                            .dwattr $C$DW$T$47, DW_AT_type(*$C$DW$T$45)
     616                            .dwattr $C$DW$T$47, DW_AT_language(DW_LANG_C)
     617                            .dwattr $C$DW$T$47, DW_AT_decl_file("C:/TI_CodeComposer/ccsv6/tools/compiler/ti-cgt-arm_5.2.2/
     618                            .dwattr $C$DW$T$47, DW_AT_decl_line(0x4a)
     619                            .dwattr $C$DW$T$47, DW_AT_decl_column(0x17)
     620                    $C$DW$T$48      .dwtag  DW_TAG_typedef, DW_AT_name("int_fast8_t")
     621                            .dwattr $C$DW$T$48, DW_AT_type(*$C$DW$T$45)
     622                            .dwattr $C$DW$T$48, DW_AT_language(DW_LANG_C)
     623                            .dwattr $C$DW$T$48, DW_AT_decl_file("C:/TI_CodeComposer/ccsv6/tools/compiler/ti-cgt-arm_5.2.2/
     624                            .dwattr $C$DW$T$48, DW_AT_decl_line(0x45)
     625                            .dwattr $C$DW$T$48, DW_AT_decl_column(0x17)
     626                    $C$DW$T$49      .dwtag  DW_TAG_typedef, DW_AT_name("int_least32_t")
     627                            .dwattr $C$DW$T$49, DW_AT_type(*$C$DW$T$45)
     628                            .dwattr $C$DW$T$49, DW_AT_language(DW_LANG_C)
     629                            .dwattr $C$DW$T$49, DW_AT_decl_file("C:/TI_CodeComposer/ccsv6/tools/compiler/ti-cgt-arm_5.2.2/
     630                            .dwattr $C$DW$T$49, DW_AT_decl_line(0x3c)
     631                            .dwattr $C$DW$T$49, DW_AT_decl_column(0x17)
     632                    $C$DW$T$50      .dwtag  DW_TAG_typedef, DW_AT_name("intptr_t")
     633                            .dwattr $C$DW$T$50, DW_AT_type(*$C$DW$T$10)
     634                            .dwattr $C$DW$T$50, DW_AT_language(DW_LANG_C)
     635                            .dwattr $C$DW$T$50, DW_AT_decl_file("C:/TI_CodeComposer/ccsv6/tools/compiler/ti-cgt-arm_5.2.2/
     636                            .dwattr $C$DW$T$50, DW_AT_decl_line(0x52)
     637                            .dwattr $C$DW$T$50, DW_AT_decl_column(0x1a)
     638                    $C$DW$T$51      .dwtag  DW_TAG_typedef, DW_AT_name("ptrdiff_t")
     639                            .dwattr $C$DW$T$51, DW_AT_type(*$C$DW$T$10)
     640                            .dwattr $C$DW$T$51, DW_AT_language(DW_LANG_C)
     641                            .dwattr $C$DW$T$51, DW_AT_decl_file("C:/TI_CodeComposer/ccsv6/tools/compiler/ti-cgt-arm_5.2.2/
     642                            .dwattr $C$DW$T$51, DW_AT_decl_line(0x36)
     643                            .dwattr $C$DW$T$51, DW_AT_decl_column(0x1c)
     644                    $C$DW$T$11      .dwtag  DW_TAG_base_type
     645                            .dwattr $C$DW$T$11, DW_AT_encoding(DW_ATE_unsigned)
     646                            .dwattr $C$DW$T$11, DW_AT_name("unsigned int")
     647                            .dwattr $C$DW$T$11, DW_AT_byte_size(0x04)
     648                    $C$DW$T$52      .dwtag  DW_TAG_typedef, DW_AT_name("_Sizet")
     649                            .dwattr $C$DW$T$52, DW_AT_type(*$C$DW$T$11)
     650                            .dwattr $C$DW$T$52, DW_AT_language(DW_LANG_C)
     651                            .dwattr $C$DW$T$52, DW_AT_decl_file("C:/TI_CodeComposer/ccsv6/tools/compiler/ti-cgt-arm_5.2.2/
TI ARM Assembler PC v5.2.2 Thu Apr 21 15:17:54 2016

Tools Copyright (c) 1996-2015 Texas Instruments Incorporated
Processor_Initialization_TM4C1294.asm                                PAGE   13

     652                            .dwattr $C$DW$T$52, DW_AT_decl_line(0xab)
     653                            .dwattr $C$DW$T$52, DW_AT_decl_column(0x1a)
     654                    $C$DW$T$53      .dwtag  DW_TAG_typedef, DW_AT_name("size_t")
     655                            .dwattr $C$DW$T$53, DW_AT_type(*$C$DW$T$11)
     656                            .dwattr $C$DW$T$53, DW_AT_language(DW_LANG_C)
     657                            .dwattr $C$DW$T$53, DW_AT_decl_file("C:/TI_CodeComposer/ccsv6/tools/compiler/ti-cgt-arm_5.2.2/
     658                            .dwattr $C$DW$T$53, DW_AT_decl_line(0x3a)
     659                            .dwattr $C$DW$T$53, DW_AT_decl_column(0x19)
     660                    $C$DW$T$20      .dwtag  DW_TAG_typedef, DW_AT_name("uint32_t")
     661                            .dwattr $C$DW$T$20, DW_AT_type(*$C$DW$T$11)
     662                            .dwattr $C$DW$T$20, DW_AT_language(DW_LANG_C)
     663                            .dwattr $C$DW$T$20, DW_AT_decl_file("C:/TI_CodeComposer/ccsv6/tools/compiler/ti-cgt-arm_5.2.2/
     664                            .dwattr $C$DW$T$20, DW_AT_decl_line(0x2f)
     665                            .dwattr $C$DW$T$20, DW_AT_decl_column(0x1c)
     666                    $C$DW$T$57      .dwtag  DW_TAG_typedef, DW_AT_name("uint_fast16_t")
     667                            .dwattr $C$DW$T$57, DW_AT_type(*$C$DW$T$20)
     668                            .dwattr $C$DW$T$57, DW_AT_language(DW_LANG_C)
     669                            .dwattr $C$DW$T$57, DW_AT_decl_file("C:/TI_CodeComposer/ccsv6/tools/compiler/ti-cgt-arm_5.2.2/
     670                            .dwattr $C$DW$T$57, DW_AT_decl_line(0x48)
     671                            .dwattr $C$DW$T$57, DW_AT_decl_column(0x16)
     672                    $C$DW$T$58      .dwtag  DW_TAG_typedef, DW_AT_name("uint_fast32_t")
     673                            .dwattr $C$DW$T$58, DW_AT_type(*$C$DW$T$20)
     674                            .dwattr $C$DW$T$58, DW_AT_language(DW_LANG_C)
     675                            .dwattr $C$DW$T$58, DW_AT_decl_file("C:/TI_CodeComposer/ccsv6/tools/compiler/ti-cgt-arm_5.2.2/
     676                            .dwattr $C$DW$T$58, DW_AT_decl_line(0x4b)
     677                            .dwattr $C$DW$T$58, DW_AT_decl_column(0x16)
     678                    $C$DW$T$59      .dwtag  DW_TAG_typedef, DW_AT_name("uint_fast8_t")
     679                            .dwattr $C$DW$T$59, DW_AT_type(*$C$DW$T$20)
     680                            .dwattr $C$DW$T$59, DW_AT_language(DW_LANG_C)
     681                            .dwattr $C$DW$T$59, DW_AT_decl_file("C:/TI_CodeComposer/ccsv6/tools/compiler/ti-cgt-arm_5.2.2/
     682                            .dwattr $C$DW$T$59, DW_AT_decl_line(0x46)
     683                            .dwattr $C$DW$T$59, DW_AT_decl_column(0x16)
     684                    $C$DW$T$60      .dwtag  DW_TAG_typedef, DW_AT_name("uint_least32_t")
     685                            .dwattr $C$DW$T$60, DW_AT_type(*$C$DW$T$20)
     686                            .dwattr $C$DW$T$60, DW_AT_language(DW_LANG_C)
     687                            .dwattr $C$DW$T$60, DW_AT_decl_file("C:/TI_CodeComposer/ccsv6/tools/compiler/ti-cgt-arm_5.2.2/
     688                            .dwattr $C$DW$T$60, DW_AT_decl_line(0x3d)
     689                            .dwattr $C$DW$T$60, DW_AT_decl_column(0x16)
     690                    $C$DW$T$61      .dwtag  DW_TAG_typedef, DW_AT_name("uintptr_t")
     691                            .dwattr $C$DW$T$61, DW_AT_type(*$C$DW$T$11)
     692                            .dwattr $C$DW$T$61, DW_AT_language(DW_LANG_C)
     693                            .dwattr $C$DW$T$61, DW_AT_decl_file("C:/TI_CodeComposer/ccsv6/tools/compiler/ti-cgt-arm_5.2.2/
     694                            .dwattr $C$DW$T$61, DW_AT_decl_line(0x53)
     695                            .dwattr $C$DW$T$61, DW_AT_decl_column(0x1a)
     696                    $C$DW$T$12      .dwtag  DW_TAG_base_type
     697                            .dwattr $C$DW$T$12, DW_AT_encoding(DW_ATE_signed)
     698                            .dwattr $C$DW$T$12, DW_AT_name("long")
     699                            .dwattr $C$DW$T$12, DW_AT_byte_size(0x04)
     700                    $C$DW$T$62      .dwtag  DW_TAG_typedef, DW_AT_name("_Int32t")
     701                            .dwattr $C$DW$T$62, DW_AT_type(*$C$DW$T$12)
     702                            .dwattr $C$DW$T$62, DW_AT_language(DW_LANG_C)
     703                            .dwattr $C$DW$T$62, DW_AT_decl_file("C:/TI_CodeComposer/ccsv6/tools/compiler/ti-cgt-arm_5.2.2/
     704                            .dwattr $C$DW$T$62, DW_AT_decl_line(0xa6)
     705                            .dwattr $C$DW$T$62, DW_AT_decl_column(0x0e)
     706                    $C$DW$T$13      .dwtag  DW_TAG_base_type
TI ARM Assembler PC v5.2.2 Thu Apr 21 15:17:54 2016

Tools Copyright (c) 1996-2015 Texas Instruments Incorporated
Processor_Initialization_TM4C1294.asm                                PAGE   14

     707                            .dwattr $C$DW$T$13, DW_AT_encoding(DW_ATE_unsigned)
     708                            .dwattr $C$DW$T$13, DW_AT_name("unsigned long")
     709                            .dwattr $C$DW$T$13, DW_AT_byte_size(0x04)
     710                    $C$DW$T$63      .dwtag  DW_TAG_typedef, DW_AT_name("_Uint32t")
     711                            .dwattr $C$DW$T$63, DW_AT_type(*$C$DW$T$13)
     712                            .dwattr $C$DW$T$63, DW_AT_language(DW_LANG_C)
     713                            .dwattr $C$DW$T$63, DW_AT_decl_file("C:/TI_CodeComposer/ccsv6/tools/compiler/ti-cgt-arm_5.2.2/
     714                            .dwattr $C$DW$T$63, DW_AT_decl_line(0xa7)
     715                            .dwattr $C$DW$T$63, DW_AT_decl_column(0x17)
     716                    $C$DW$T$14      .dwtag  DW_TAG_base_type
     717                            .dwattr $C$DW$T$14, DW_AT_encoding(DW_ATE_signed)
     718                            .dwattr $C$DW$T$14, DW_AT_name("long long")
     719                            .dwattr $C$DW$T$14, DW_AT_byte_size(0x08)
     720                    $C$DW$T$64      .dwtag  DW_TAG_typedef, DW_AT_name("_Longlong")
     721                            .dwattr $C$DW$T$64, DW_AT_type(*$C$DW$T$14)
     722                            .dwattr $C$DW$T$64, DW_AT_language(DW_LANG_C)
     723                            .dwattr $C$DW$T$64, DW_AT_decl_file("C:/TI_CodeComposer/ccsv6/tools/compiler/ti-cgt-arm_5.2.2/
     724                            .dwattr $C$DW$T$64, DW_AT_decl_line(0x1b5)
     725                            .dwattr $C$DW$T$64, DW_AT_decl_column(0x13)
     726                    $C$DW$T$65      .dwtag  DW_TAG_typedef, DW_AT_name("int64_t")
     727                            .dwattr $C$DW$T$65, DW_AT_type(*$C$DW$T$14)
     728                            .dwattr $C$DW$T$65, DW_AT_language(DW_LANG_C)
     729                            .dwattr $C$DW$T$65, DW_AT_decl_file("C:/TI_CodeComposer/ccsv6/tools/compiler/ti-cgt-arm_5.2.2/
     730                            .dwattr $C$DW$T$65, DW_AT_decl_line(0x32)
     731                            .dwattr $C$DW$T$65, DW_AT_decl_column(0x21)
     732                    $C$DW$T$66      .dwtag  DW_TAG_typedef, DW_AT_name("int_fast64_t")
     733                            .dwattr $C$DW$T$66, DW_AT_type(*$C$DW$T$65)
     734                            .dwattr $C$DW$T$66, DW_AT_language(DW_LANG_C)
     735                            .dwattr $C$DW$T$66, DW_AT_decl_file("C:/TI_CodeComposer/ccsv6/tools/compiler/ti-cgt-arm_5.2.2/
     736                            .dwattr $C$DW$T$66, DW_AT_decl_line(0x4e)
     737                            .dwattr $C$DW$T$66, DW_AT_decl_column(0x17)
     738                    $C$DW$T$67      .dwtag  DW_TAG_typedef, DW_AT_name("int_least64_t")
     739                            .dwattr $C$DW$T$67, DW_AT_type(*$C$DW$T$65)
     740                            .dwattr $C$DW$T$67, DW_AT_language(DW_LANG_C)
     741                            .dwattr $C$DW$T$67, DW_AT_decl_file("C:/TI_CodeComposer/ccsv6/tools/compiler/ti-cgt-arm_5.2.2/
     742                            .dwattr $C$DW$T$67, DW_AT_decl_line(0x40)
     743                            .dwattr $C$DW$T$67, DW_AT_decl_column(0x17)
     744                    $C$DW$T$68      .dwtag  DW_TAG_typedef, DW_AT_name("intmax_t")
     745                            .dwattr $C$DW$T$68, DW_AT_type(*$C$DW$T$14)
     746                            .dwattr $C$DW$T$68, DW_AT_language(DW_LANG_C)
     747                            .dwattr $C$DW$T$68, DW_AT_decl_file("C:/TI_CodeComposer/ccsv6/tools/compiler/ti-cgt-arm_5.2.2/
     748                            .dwattr $C$DW$T$68, DW_AT_decl_line(0x56)
     749                            .dwattr $C$DW$T$68, DW_AT_decl_column(0x20)
     750                    $C$DW$T$15      .dwtag  DW_TAG_base_type
     751                            .dwattr $C$DW$T$15, DW_AT_encoding(DW_ATE_unsigned)
     752                            .dwattr $C$DW$T$15, DW_AT_name("unsigned long long")
     753                            .dwattr $C$DW$T$15, DW_AT_byte_size(0x08)
     754                    $C$DW$T$69      .dwtag  DW_TAG_typedef, DW_AT_name("_ULonglong")
     755                            .dwattr $C$DW$T$69, DW_AT_type(*$C$DW$T$15)
     756                            .dwattr $C$DW$T$69, DW_AT_language(DW_LANG_C)
     757                            .dwattr $C$DW$T$69, DW_AT_decl_file("C:/TI_CodeComposer/ccsv6/tools/compiler/ti-cgt-arm_5.2.2/
     758                            .dwattr $C$DW$T$69, DW_AT_decl_line(0x1b6)
     759                            .dwattr $C$DW$T$69, DW_AT_decl_column(0x14)
     760                    $C$DW$T$70      .dwtag  DW_TAG_typedef, DW_AT_name("uint64_t")
     761                            .dwattr $C$DW$T$70, DW_AT_type(*$C$DW$T$15)
TI ARM Assembler PC v5.2.2 Thu Apr 21 15:17:54 2016

Tools Copyright (c) 1996-2015 Texas Instruments Incorporated
Processor_Initialization_TM4C1294.asm                                PAGE   15

     762                            .dwattr $C$DW$T$70, DW_AT_language(DW_LANG_C)
     763                            .dwattr $C$DW$T$70, DW_AT_decl_file("C:/TI_CodeComposer/ccsv6/tools/compiler/ti-cgt-arm_5.2.2/
     764                            .dwattr $C$DW$T$70, DW_AT_decl_line(0x33)
     765                            .dwattr $C$DW$T$70, DW_AT_decl_column(0x20)
     766                    $C$DW$T$71      .dwtag  DW_TAG_typedef, DW_AT_name("uint_fast64_t")
     767                            .dwattr $C$DW$T$71, DW_AT_type(*$C$DW$T$70)
     768                            .dwattr $C$DW$T$71, DW_AT_language(DW_LANG_C)
     769                            .dwattr $C$DW$T$71, DW_AT_decl_file("C:/TI_CodeComposer/ccsv6/tools/compiler/ti-cgt-arm_5.2.2/
     770                            .dwattr $C$DW$T$71, DW_AT_decl_line(0x4f)
     771                            .dwattr $C$DW$T$71, DW_AT_decl_column(0x16)
     772                    $C$DW$T$72      .dwtag  DW_TAG_typedef, DW_AT_name("uint_least64_t")
     773                            .dwattr $C$DW$T$72, DW_AT_type(*$C$DW$T$70)
     774                            .dwattr $C$DW$T$72, DW_AT_language(DW_LANG_C)
     775                            .dwattr $C$DW$T$72, DW_AT_decl_file("C:/TI_CodeComposer/ccsv6/tools/compiler/ti-cgt-arm_5.2.2/
     776                            .dwattr $C$DW$T$72, DW_AT_decl_line(0x41)
     777                            .dwattr $C$DW$T$72, DW_AT_decl_column(0x16)
     778                    $C$DW$T$73      .dwtag  DW_TAG_typedef, DW_AT_name("uintmax_t")
     779                            .dwattr $C$DW$T$73, DW_AT_type(*$C$DW$T$15)
     780                            .dwattr $C$DW$T$73, DW_AT_language(DW_LANG_C)
     781                            .dwattr $C$DW$T$73, DW_AT_decl_file("C:/TI_CodeComposer/ccsv6/tools/compiler/ti-cgt-arm_5.2.2/
     782                            .dwattr $C$DW$T$73, DW_AT_decl_line(0x57)
     783                            .dwattr $C$DW$T$73, DW_AT_decl_column(0x20)
     784                    $C$DW$T$16      .dwtag  DW_TAG_base_type
     785                            .dwattr $C$DW$T$16, DW_AT_encoding(DW_ATE_float)
     786                            .dwattr $C$DW$T$16, DW_AT_name("float")
     787                            .dwattr $C$DW$T$16, DW_AT_byte_size(0x04)
     788                    $C$DW$T$17      .dwtag  DW_TAG_base_type
     789                            .dwattr $C$DW$T$17, DW_AT_encoding(DW_ATE_float)
     790                            .dwattr $C$DW$T$17, DW_AT_name("double")
     791                            .dwattr $C$DW$T$17, DW_AT_byte_size(0x08)
     792                    $C$DW$T$18      .dwtag  DW_TAG_base_type
     793                            .dwattr $C$DW$T$18, DW_AT_encoding(DW_ATE_float)
     794                            .dwattr $C$DW$T$18, DW_AT_name("long double")
     795                            .dwattr $C$DW$T$18, DW_AT_byte_size(0x08)
     796                    $C$DW$T$75      .dwtag  DW_TAG_typedef, DW_AT_name("_Sysch_t")
     797                            .dwattr $C$DW$T$75, DW_AT_type(*$C$DW$T$6)
     798                            .dwattr $C$DW$T$75, DW_AT_language(DW_LANG_C)
     799                            .dwattr $C$DW$T$75, DW_AT_decl_file("C:/TI_CodeComposer/ccsv6/tools/compiler/ti-cgt-arm_5.2.2/
     800                            .dwattr $C$DW$T$75, DW_AT_decl_line(0x218)
     801                            .dwattr $C$DW$T$75, DW_AT_decl_column(0x0e)
     802                    $C$DW$T$76      .dwtag  DW_TAG_pointer_type
     803                            .dwattr $C$DW$T$76, DW_AT_type(*$C$DW$T$6)
     804                            .dwattr $C$DW$T$76, DW_AT_address_class(0x20)
     805                    $C$DW$T$77      .dwtag  DW_TAG_typedef, DW_AT_name("__builtin_va_list")
     806                            .dwattr $C$DW$T$77, DW_AT_type(*$C$DW$T$76)
     807                            .dwattr $C$DW$T$77, DW_AT_language(DW_LANG_C)
     808                            .dwattr $C$DW$T$77, DW_AT_decl_file("../Drivers/Processor_Initialization_TM4C1294.c")
     809                            .dwattr $C$DW$T$77, DW_AT_decl_line(0x7f)
     810                            .dwattr $C$DW$T$77, DW_AT_decl_column(0x02)
     811                    
     812                    $C$DW$T$19      .dwtag  DW_TAG_structure_type
     813                            .dwattr $C$DW$T$19, DW_AT_name("__va_list")
     814                            .dwattr $C$DW$T$19, DW_AT_byte_size(0x04)
     815                    $C$DW$45        .dwtag  DW_TAG_member
     816                            .dwattr $C$DW$45, DW_AT_type(*$C$DW$T$3)
TI ARM Assembler PC v5.2.2 Thu Apr 21 15:17:54 2016

Tools Copyright (c) 1996-2015 Texas Instruments Incorporated
Processor_Initialization_TM4C1294.asm                                PAGE   16

     817                            .dwattr $C$DW$45, DW_AT_name("__ap")
     818                            .dwattr $C$DW$45, DW_AT_TI_symbol_name("__ap")
     819                            .dwattr $C$DW$45, DW_AT_data_member_location[DW_OP_plus_uconst 0x0]
     820                            .dwattr $C$DW$45, DW_AT_accessibility(DW_ACCESS_public)
     821                            .dwattr $C$DW$45, DW_AT_decl_file("C:/TI_CodeComposer/ccsv6/tools/compiler/ti-cgt-arm_5.2.2/in
     822                            .dwattr $C$DW$45, DW_AT_decl_line(0x36)
     823                            .dwattr $C$DW$45, DW_AT_decl_column(0x0c)
     824                            .dwendtag $C$DW$T$19
     825                    
     826                            .dwattr $C$DW$T$19, DW_AT_decl_file("C:/TI_CodeComposer/ccsv6/tools/compiler/ti-cgt-arm_5.2.2/
     827                            .dwattr $C$DW$T$19, DW_AT_decl_line(0x35)
     828                            .dwattr $C$DW$T$19, DW_AT_decl_column(0x10)
     829                    $C$DW$T$78      .dwtag  DW_TAG_typedef, DW_AT_name("va_list")
     830                            .dwattr $C$DW$T$78, DW_AT_type(*$C$DW$T$19)
     831                            .dwattr $C$DW$T$78, DW_AT_language(DW_LANG_C)
     832                            .dwattr $C$DW$T$78, DW_AT_decl_file("C:/TI_CodeComposer/ccsv6/tools/compiler/ti-cgt-arm_5.2.2/
     833                            .dwattr $C$DW$T$78, DW_AT_decl_line(0x37)
     834                            .dwattr $C$DW$T$78, DW_AT_decl_column(0x03)
     835                    $C$DW$T$79      .dwtag  DW_TAG_typedef, DW_AT_name("_Va_list")
     836                            .dwattr $C$DW$T$79, DW_AT_type(*$C$DW$T$78)
     837                            .dwattr $C$DW$T$79, DW_AT_language(DW_LANG_C)
     838                            .dwattr $C$DW$T$79, DW_AT_decl_file("C:/TI_CodeComposer/ccsv6/tools/compiler/ti-cgt-arm_5.2.2/
     839                            .dwattr $C$DW$T$79, DW_AT_decl_line(0x1f6)
     840                            .dwattr $C$DW$T$79, DW_AT_decl_column(0x17)
     841                            .dwattr $C$DW$CU, DW_AT_language(DW_LANG_C)
     842                    
     843                    ;***************************************************************
     844                    ;* DWARF CIE ENTRIES                                           *
     845                    ;***************************************************************
     846                    
     847                    $C$DW$CIE       .dwcie 14
     848                            .dwcfi  cfa_register, 13
     849                            .dwcfi  cfa_offset, 0
     850                            .dwcfi  undefined, 0
     851                            .dwcfi  undefined, 1
     852                            .dwcfi  undefined, 2
     853                            .dwcfi  undefined, 3
     854                            .dwcfi  same_value, 4
     855                            .dwcfi  same_value, 5
     856                            .dwcfi  same_value, 6
     857                            .dwcfi  same_value, 7
     858                            .dwcfi  same_value, 8
     859                            .dwcfi  same_value, 9
     860                            .dwcfi  same_value, 10
     861                            .dwcfi  same_value, 11
     862                            .dwcfi  undefined, 12
     863                            .dwcfi  undefined, 13
     864                            .dwcfi  undefined, 14
     865                            .dwcfi  undefined, 14
     866                            .dwcfi  undefined, 7
     867                            .dwcfi  undefined, 64
     868                            .dwcfi  undefined, 65
     869                            .dwcfi  undefined, 66
     870                            .dwcfi  undefined, 67
     871                            .dwcfi  undefined, 68
TI ARM Assembler PC v5.2.2 Thu Apr 21 15:17:54 2016

Tools Copyright (c) 1996-2015 Texas Instruments Incorporated
Processor_Initialization_TM4C1294.asm                                PAGE   17

     872                            .dwcfi  undefined, 69
     873                            .dwcfi  undefined, 70
     874                            .dwcfi  undefined, 71
     875                            .dwcfi  undefined, 72
     876                            .dwcfi  undefined, 73
     877                            .dwcfi  undefined, 74
     878                            .dwcfi  undefined, 75
     879                            .dwcfi  undefined, 76
     880                            .dwcfi  undefined, 77
     881                            .dwcfi  undefined, 78
     882                            .dwcfi  undefined, 79
     883                            .dwcfi  same_value, 80
     884                            .dwcfi  same_value, 81
     885                            .dwcfi  same_value, 82
     886                            .dwcfi  same_value, 83
     887                            .dwcfi  same_value, 84
     888                            .dwcfi  same_value, 85
     889                            .dwcfi  same_value, 86
     890                            .dwcfi  same_value, 87
     891                            .dwcfi  same_value, 88
     892                            .dwcfi  same_value, 89
     893                            .dwcfi  same_value, 90
     894                            .dwcfi  same_value, 91
     895                            .dwcfi  same_value, 92
     896                            .dwcfi  same_value, 93
     897                            .dwcfi  same_value, 94
     898                            .dwcfi  same_value, 95
     899                            .dwendentry
     900                            .dwendtag $C$DW$CU
     901                    

--------------------------
Thumb2 Statistics
--------------------------
Number of Thumb2 ins converted to Thumb = 0 (0%)
Number of Thumb ins in input = 43 (72%)
Number of Thumb2 ins encoded as Thumb2 = 16 (100%)
Number of Thumb2 ins converted to 2 OPND Thumb = 1


No Assembly Errors, No Assembly Warnings
